target datalayout = "e-m:e-p270:32:32-p271:32:32-p272:64:64-i64:64-i128:128-f80:128-n8:16:32:64-S128"
target triple = "x86_64-pc-linux-gnu"

; Function Attrs: nounwind uwtable
define internal i32 @serverinfoex_srv_parse_cb(ptr noundef %0, i32 noundef %1, i32 noundef %2, ptr noundef %3, i64 noundef %4, ptr noundef %5, i64 noundef %6, ptr noundef %7, ptr noundef %8) #0 {
  %10 = alloca i32, align 4
  %11 = alloca ptr, align 8
  %12 = alloca i32, align 4
  %13 = alloca i32, align 4
  %14 = alloca ptr, align 8
  %15 = alloca i64, align 8
  %16 = alloca ptr, align 8
  %17 = alloca i64, align 8
  %18 = alloca ptr, align 8
  %19 = alloca ptr, align 8
  store ptr %0, ptr %11, align 8, !tbaa !3
  store i32 %1, ptr %12, align 4, !tbaa !21
  store i32 %2, ptr %13, align 4, !tbaa !21
  store ptr %3, ptr %14, align 8, !tbaa !87
  store i64 %4, ptr %15, align 8, !tbaa !78
  store ptr %5, ptr %16, align 8, !tbaa !8
  store i64 %6, ptr %17, align 8, !tbaa !78
  store ptr %7, ptr %18, align 8, !tbaa !123
  store ptr %8, ptr %19, align 8, !tbaa !110
  %20 = load i64, ptr %15, align 8, !tbaa !78
  %21 = icmp ne i64 %20, 0
  br i1 %21, label %22, label %24

22:                                               ; preds = %9
  %23 = load ptr, ptr %18, align 8, !tbaa !123
  store i32 50, ptr %23, align 4, !tbaa !21
  store i32 0, ptr %10, align 4
  br label %25

24:                                               ; preds = %9
  store i32 1, ptr %10, align 4
  br label %25

25:                                               ; preds = %24, %22
  %26 = load i32, ptr %10, align 4
  ret i32 %26
}