; Function Attrs: mustprogress nofree norecurse nosync nounwind willreturn memory(argmem: write) uwtable
define internal range(i32 0, 2) i32 @serverinfoex_srv_parse_cb(ptr readnone captures(none) %0, i32 %1, i32 %2, ptr readnone captures(none) %3, i64 noundef %4, ptr readnone captures(none) %5, i64 %6, ptr noundef writeonly captures(none) %7, ptr readnone captures(none) %8) #5 {
  %.not = icmp eq i64 %4, 0
  br i1 %.not, label %11, label %10

10:                                               ; preds = %9
  store i32 50, ptr %7, align 4, !tbaa !112
  br label %11

11:                                               ; preds = %9, %10
  %.0 = phi i32 [ 0, %10 ], [ 1, %9 ]
  ret i32 %.0
}